target datalayout = "e-m:e-p270:32:32-p271:32:32-p272:64:64-i64:64-i128:128-f80:128-n8:16:32:64-S128"
target triple = "x86_64-pc-linux-gnu"

; Function Attrs: nounwind uwtable
define hidden void @SDL_CalculateFraction(float noundef %0, ptr noundef %1, ptr noundef %2) #0 {
  %4 = alloca float, align 4
  %5 = alloca ptr, align 8
  %6 = alloca ptr, align 8
  %7 = alloca i32, align 4
  %8 = alloca i32, align 4
  %9 = alloca i32, align 4
  %10 = alloca i32, align 4
  %11 = alloca i32, align 4
  %12 = alloca float, align 4
  %13 = alloca i32, align 4
  store float %0, ptr %4, align 4
  store ptr %1, ptr %5, align 8
  store ptr %2, ptr %6, align 8
  call void @llvm.lifetime.start.p0(i64 4, ptr %7) #6
  store i32 1000, ptr %7, align 4
  call void @llvm.lifetime.start.p0(i64 4, ptr %8) #6
  store i32 0, ptr %8, align 4
  call void @llvm.lifetime.start.p0(i64 4, ptr %9) #6
  store i32 1, ptr %9, align 4
  call void @llvm.lifetime.start.p0(i64 4, ptr %10) #6
  store i32 1, ptr %10, align 4
  call void @llvm.lifetime.start.p0(i64 4, ptr %11) #6
  store i32 0, ptr %11, align 4
  br label %14

14:                                               ; preds = %87, %3
  %15 = load i32, ptr %9, align 4
  %16 = icmp sle i32 %15, 1000
  br i1 %16, label %17, label %20

17:                                               ; preds = %14
  %18 = load i32, ptr %11, align 4
  %19 = icmp sle i32 %18, 1000
  br label %20

20:                                               ; preds = %17, %14
  %21 = phi i1 [ false, %14 ], [ %19, %17 ]
  br i1 %21, label %22, label %88

22:                                               ; preds = %20
  call void @llvm.lifetime.start.p0(i64 4, ptr %12) #6
  %23 = load i32, ptr %8, align 4
  %24 = load i32, ptr %10, align 4
  %25 = add nsw i32 %23, %24
  %26 = sitofp i32 %25 to float
  %27 = load i32, ptr %9, align 4
  %28 = load i32, ptr %11, align 4
  %29 = add nsw i32 %27, %28
  %30 = sitofp i32 %29 to float
  %31 = fdiv float %26, %30
  store float %31, ptr %12, align 4
  %32 = load float, ptr %4, align 4
  %33 = load float, ptr %12, align 4
  %34 = fcmp oeq float %32, %33
  br i1 %34, label %35, label %65

35:                                               ; preds = %22
  %36 = load i32, ptr %9, align 4
  %37 = load i32, ptr %11, align 4
  %38 = add nsw i32 %36, %37
  %39 = icmp sle i32 %38, 1000
  br i1 %39, label %40, label %49

40:                                               ; preds = %35
  %41 = load i32, ptr %8, align 4
  %42 = load i32, ptr %10, align 4
  %43 = add nsw i32 %41, %42
  %44 = load ptr, ptr %5, align 8
  store i32 %43, ptr %44, align 4
  %45 = load i32, ptr %9, align 4
  %46 = load i32, ptr %11, align 4
  %47 = add nsw i32 %45, %46
  %48 = load ptr, ptr %6, align 8
  store i32 %47, ptr %48, align 4
  br label %64

49:                                               ; preds = %35
  %50 = load i32, ptr %11, align 4
  %51 = load i32, ptr %9, align 4
  %52 = icmp sgt i32 %50, %51
  br i1 %52, label %53, label %58

53:                                               ; preds = %49
  %54 = load i32, ptr %10, align 4
  %55 = load ptr, ptr %5, align 8
  store i32 %54, ptr %55, align 4
  %56 = load i32, ptr %11, align 4
  %57 = load ptr, ptr %6, align 8
  store i32 %56, ptr %57, align 4
  br label %63

58:                                               ; preds = %49
  %59 = load i32, ptr %8, align 4
  %60 = load ptr, ptr %5, align 8
  store i32 %59, ptr %60, align 4
  %61 = load i32, ptr %9, align 4
  %62 = load ptr, ptr %6, align 8
  store i32 %61, ptr %62, align 4
  br label %63

63:                                               ; preds = %58, %53
  br label %64

64:                                               ; preds = %63, %40
  store i32 1, ptr %13, align 4
  br label %85

65:                                               ; preds = %22
  %66 = load float, ptr %4, align 4
  %67 = load float, ptr %12, align 4
  %68 = fcmp ogt float %66, %67
  br i1 %68, label %69, label %76

69:                                               ; preds = %65
  %70 = load i32, ptr %8, align 4
  %71 = load i32, ptr %10, align 4
  %72 = add nsw i32 %70, %71
  store i32 %72, ptr %8, align 4
  %73 = load i32, ptr %9, align 4
  %74 = load i32, ptr %11, align 4
  %75 = add nsw i32 %73, %74
  store i32 %75, ptr %9, align 4
  br label %83

76:                                               ; preds = %65
  %77 = load i32, ptr %8, align 4
  %78 = load i32, ptr %10, align 4
  %79 = add nsw i32 %77, %78
  store i32 %79, ptr %10, align 4
  %80 = load i32, ptr %9, align 4
  %81 = load i32, ptr %11, align 4
  %82 = add nsw i32 %80, %81
  store i32 %82, ptr %11, align 4
  br label %83

83:                                               ; preds = %76, %69
  br label %84

84:                                               ; preds = %83
  store i32 0, ptr %13, align 4
  br label %85

85:                                               ; preds = %84, %64
  call void @llvm.lifetime.end.p0(i64 4, ptr %12) #6
  %86 = load i32, ptr %13, align 4
  switch i32 %86, label %102 [
    i32 0, label %87
  ]

87:                                               ; preds = %85
  br label %14, !llvm.loop !3

88:                                               ; preds = %20
  %89 = load i32, ptr %9, align 4
  %90 = icmp sgt i32 %89, 1000
  br i1 %90, label %91, label %96

91:                                               ; preds = %88
  %92 = load i32, ptr %10, align 4
  %93 = load ptr, ptr %5, align 8
  store i32 %92, ptr %93, align 4
  %94 = load i32, ptr %11, align 4
  %95 = load ptr, ptr %6, align 8
  store i32 %94, ptr %95, align 4
  br label %101

96:                                               ; preds = %88
  %97 = load i32, ptr %8, align 4
  %98 = load ptr, ptr %5, align 8
  store i32 %97, ptr %98, align 4
  %99 = load i32, ptr %9, align 4
  %100 = load ptr, ptr %6, align 8
  store i32 %99, ptr %100, align 4
  br label %101

101:                                              ; preds = %96, %91
  store i32 0, ptr %13, align 4
  br label %102

102:                                              ; preds = %101, %85
  call void @llvm.lifetime.end.p0(i64 4, ptr %11) #6
  call void @llvm.lifetime.end.p0(i64 4, ptr %10) #6
  call void @llvm.lifetime.end.p0(i64 4, ptr %9) #6
  call void @llvm.lifetime.end.p0(i64 4, ptr %8) #6
  call void @llvm.lifetime.end.p0(i64 4, ptr %7) #6
  %103 = load i32, ptr %13, align 4
  switch i32 %103, label %105 [
    i32 0, label %104
    i32 1, label %104
  ]

104:                                              ; preds = %102, %102
  ret void

105:                                              ; preds = %102
  unreachable
}