; Function Attrs: nofree norecurse nosync nounwind memory(argmem: write) uwtable
define hidden void @SDL_CalculateFraction(float noundef %0, ptr noundef writeonly captures(none) %1, ptr noundef writeonly captures(none) %2) local_unnamed_addr #3 {
  br label %4

4:                                                ; preds = %3, %15
  %.04571 = phi i32 [ 0, %3 ], [ %..045, %15 ]
  %.04670 = phi i32 [ 0, %3 ], [ %.046., %15 ]
  %.04969 = phi i32 [ 1, %3 ], [ %.049., %15 ]
  %.05268 = phi i32 [ 1, %3 ], [ %..052, %15 ]
  %5 = add nsw i32 %.04571, %.04969
  %6 = sitofp i32 %5 to float
  %7 = add nsw i32 %.04670, %.05268
  %8 = sitofp i32 %7 to float
  %9 = fdiv float %6, %8
  %10 = fcmp une float %0, %9
  br i1 %10, label %15, label %11

11:                                               ; preds = %4
  %12 = icmp slt i32 %7, 1001
  br i1 %12, label %.thread, label %13

13:                                               ; preds = %11
  %14 = icmp sgt i32 %.04670, %.05268
  %.04969.lcssa..04571.lcssa = select i1 %14, i32 %.04969, i32 %.04571
  %.04670.lcssa..05268.lcssa = tail call i32 @llvm.smax.i32(i32 %.04670, i32 %.05268)
  br label %.thread

15:                                               ; preds = %4
  %16 = fcmp ogt float %0, %9
  %..052 = select i1 %16, i32 %7, i32 %.05268
  %.049. = select i1 %16, i32 %.04969, i32 %5
  %.046. = select i1 %16, i32 %.04670, i32 %7
  %..045 = select i1 %16, i32 %5, i32 %.04571
  %17 = icmp slt i32 %..052, 1001
  %18 = icmp slt i32 %.046., 1001
  %19 = and i1 %17, %18
  br i1 %19, label %4, label %20

20:                                               ; preds = %15
  %21 = icmp sgt i32 %..052, 1000
  %.049..045 = select i1 %21, i32 %.049., i32 %..045
  %.046..052 = select i1 %21, i32 %.046., i32 %..052
  br label %.thread

.thread:                                          ; preds = %13, %11, %20
  %.04969.lcssa.sink = phi i32 [ %.049..045, %20 ], [ %5, %11 ], [ %.04969.lcssa..04571.lcssa, %13 ]
  %.04670.lcssa.sink = phi i32 [ %.046..052, %20 ], [ %7, %11 ], [ %.04670.lcssa..05268.lcssa, %13 ]
  store i32 %.04969.lcssa.sink, ptr %1, align 4
  store i32 %.04670.lcssa.sink, ptr %2, align 4
  ret void
}